; Function Attrs: cold nofree norecurse nosync nounwind optsize memory(write, argmem: none, inaccessiblemem: none) uwtable
define internal void @ff_tx_init_tab_65536_float() #6 {
  br label %2

1:                                                ; preds = %2
  store float 0.000000e+00, ptr %7, align 4, !tbaa !27
  ret void

2:                                                ; preds = %0, %2
  %.07 = phi i32 [ 0, %0 ], [ %8, %2 ]
  %.056 = phi ptr [ @ff_tx_tab_65536_float, %0 ], [ %7, %2 ]
  %3 = uitofp nneg i32 %.07 to double
  %4 = fmul nsz double %3, 0x3F1921FB54442D18
  %5 = tail call nsz double @llvm.cos.f64(double %4)
  %6 = fptrunc nsz double %5 to float
  %7 = getelementptr inbounds nuw i8, ptr %.056, i64 4
  store float %6, ptr %.056, align 4, !tbaa !27
  %8 = add nuw nsw i32 %.07, 1
  %exitcond.not = icmp eq i32 %8, 16384
  br i1 %exitcond.not, label %1, label %2, !llvm.loop !43
}